target datalayout = "e-m:e-p270:32:32-p271:32:32-p272:64:64-i64:64-i128:128-f80:128-n8:16:32:64-S128"
target triple = "x86_64-pc-linux-gnu"

; Function Attrs: mustprogress nounwind uwtable
define noundef i64 @_ZN5boost10stacktrace6detail4dumpEiPKPKvm(i32 noundef %0, ptr noundef %1, i64 noundef %2) #0 personality ptr @__gxx_personality_v0 {
  %4 = alloca i64, align 8
  %5 = alloca i32, align 4
  %6 = alloca ptr, align 8
  %7 = alloca i64, align 8
  store i32 %0, ptr %5, align 4, !tbaa !3
  store ptr %1, ptr %6, align 8, !tbaa !7
  store i64 %2, ptr %7, align 8, !tbaa !9
  %8 = load i32, ptr %5, align 4, !tbaa !3
  %9 = load ptr, ptr %6, align 8, !tbaa !7
  %10 = load i64, ptr %7, align 8, !tbaa !9
  %11 = mul i64 8, %10
  %12 = invoke i64 @write(i32 noundef %8, ptr noundef %9, i64 noundef %11)
          to label %13 unwind label %20

13:                                               ; preds = %3
  %14 = icmp eq i64 %12, -1
  br i1 %14, label %15, label %16

15:                                               ; preds = %13
  store i64 0, ptr %4, align 8
  br label %18

16:                                               ; preds = %13
  %17 = load i64, ptr %7, align 8, !tbaa !9
  store i64 %17, ptr %4, align 8
  br label %18

18:                                               ; preds = %16, %15
  %19 = load i64, ptr %4, align 8
  ret i64 %19

20:                                               ; preds = %3
  %21 = landingpad { ptr, i32 }
          catch ptr null
  %22 = extractvalue { ptr, i32 } %21, 0
  call void @__clang_call_terminate(ptr %22) #16
  unreachable
}

; Function Attrs: mustprogress nounwind uwtable
define noundef i64 @_ZN5boost10stacktrace6detail4dumpEPKcPKPKvm(ptr noundef %0, ptr noundef %1, i64 noundef %2) #0 personality ptr @__gxx_personality_v0 {
  %4 = alloca i64, align 8
  %5 = alloca ptr, align 8
  %6 = alloca ptr, align 8
  %7 = alloca i64, align 8
  %8 = alloca i32, align 4
  %9 = alloca i32, align 4
  %10 = alloca i64, align 8
  store ptr %0, ptr %5, align 8, !tbaa !7
  store ptr %1, ptr %6, align 8, !tbaa !7
  store i64 %2, ptr %7, align 8, !tbaa !9
  call void @llvm.lifetime.start.p0(i64 4, ptr %8) #17
  %11 = load ptr, ptr %5, align 8, !tbaa !7
  %12 = invoke i32 (ptr, i32, ...) @open(ptr noundef %11, i32 noundef 577, i32 noundef 384)
          to label %13 unwind label %28

13:                                               ; preds = %3
  store i32 %12, ptr %8, align 4, !tbaa !3
  %14 = load i32, ptr %8, align 4, !tbaa !3
  %15 = icmp eq i32 %14, -1
  br i1 %15, label %16, label %17

16:                                               ; preds = %13
  store i64 0, ptr %4, align 8
  store i32 1, ptr %9, align 4
  br label %26

17:                                               ; preds = %13
  call void @llvm.lifetime.start.p0(i64 8, ptr %10) #17
  %18 = load i32, ptr %8, align 4, !tbaa !3
  %19 = load ptr, ptr %6, align 8, !tbaa !7
  %20 = load i64, ptr %7, align 8, !tbaa !9
  %21 = call noundef i64 @_ZN5boost10stacktrace6detail4dumpEiPKPKvm(i32 noundef %18, ptr noundef %19, i64 noundef %20) #17
  store i64 %21, ptr %10, align 8, !tbaa !9
  %22 = load i32, ptr %8, align 4, !tbaa !3
  %23 = invoke i32 @close(i32 noundef %22)
          to label %24 unwind label %28

24:                                               ; preds = %17
  %25 = load i64, ptr %10, align 8, !tbaa !9
  store i64 %25, ptr %4, align 8
  store i32 1, ptr %9, align 4
  call void @llvm.lifetime.end.p0(i64 8, ptr %10) #17
  br label %26

26:                                               ; preds = %24, %16
  call void @llvm.lifetime.end.p0(i64 4, ptr %8) #17
  %27 = load i64, ptr %4, align 8
  ret i64 %27

28:                                               ; preds = %17, %3
  %29 = landingpad { ptr, i32 }
          catch ptr null
  %30 = extractvalue { ptr, i32 } %29, 0
  call void @__clang_call_terminate(ptr %30) #16
  unreachable
}