; Function Attrs: mustprogress nounwind uwtable
define noundef i64 @_ZN5boost10stacktrace6detail4dumpEPKcPKPKvm(ptr nocapture noundef readonly %0, ptr nocapture noundef readonly %1, i64 noundef %2) local_unnamed_addr #0 personality ptr @__gxx_personality_v0 {
  %4 = invoke i32 (ptr, i32, ...) @open(ptr noundef %0, i32 noundef 577, i32 noundef 384)
          to label %5 unwind label %16

5:                                                ; preds = %3
  %6 = icmp eq i32 %4, -1
  br i1 %6, label %15, label %7

7:                                                ; preds = %5
  %8 = shl i64 %2, 3
  %9 = invoke i64 @write(i32 noundef %4, ptr noundef readonly %1, i64 noundef %8)
          to label %_ZN5boost10stacktrace6detail4dumpEiPKPKvm.exit unwind label %10

10:                                               ; preds = %7
  %11 = landingpad { ptr, i32 }
          catch ptr null
  %12 = extractvalue { ptr, i32 } %11, 0
  tail call void @__clang_call_terminate(ptr %12) #21
  unreachable

_ZN5boost10stacktrace6detail4dumpEiPKPKvm.exit:   ; preds = %7
  %13 = icmp eq i64 %9, -1
  %..i = select i1 %13, i64 0, i64 %2
  %14 = invoke i32 @close(i32 noundef %4)
          to label %15 unwind label %16

15:                                               ; preds = %_ZN5boost10stacktrace6detail4dumpEiPKPKvm.exit, %5
  %.0 = phi i64 [ 0, %5 ], [ %..i, %_ZN5boost10stacktrace6detail4dumpEiPKPKvm.exit ]
  ret i64 %.0

16:                                               ; preds = %_ZN5boost10stacktrace6detail4dumpEiPKPKvm.exit, %3
  %17 = landingpad { ptr, i32 }
          catch ptr null
  %18 = extractvalue { ptr, i32 } %17, 0
  tail call void @__clang_call_terminate(ptr %18) #21
  unreachable
}